; Function Attrs: mustprogress uwtable
define noundef double @_ZNK8QuantLib15FdmHestonSolver19meanVarianceGammaAtEdd(ptr noundef nonnull align 8 dereferenceable(208) %this, double noundef %s, double noundef %v) local_unnamed_addr #10 align 2 {
entry:
  %vtable = load ptr, ptr %this, align 8, !tbaa !33
  %vfn = getelementptr inbounds i8, ptr %vtable, i64 24
  %0 = load ptr, ptr %vfn, align 8
  tail call void %0(ptr noundef nonnull align 8 dereferenceable(12) %this)
  %call = tail call double @log(double noundef %s) #27, !tbaa !120
  %process_ = getelementptr inbounds nuw i8, ptr %this, i64 16
  %call2 = tail call noundef nonnull align 8 dereferenceable(16) ptr @_ZNK8QuantLib6HandleINS_13HestonProcessEEptEv(ptr noundef nonnull align 8 dereferenceable(16) %process_)
  %1 = load ptr, ptr %call2, align 8, !tbaa !114
  %cmp.not.i = icmp eq ptr %1, null
  br i1 %cmp.not.i, label %cond.false.i, label %_ZNK5boost10shared_ptrIN8QuantLib13HestonProcessEEptEv.exit, !prof !53

cond.false.i:                                     ; preds = %entry
  tail call void @_ZN5boost16assertion_failedEPKcS1_S1_l(ptr noundef nonnull @.str.8, ptr noundef nonnull @__PRETTY_FUNCTION__._ZNK5boost10shared_ptrIN8QuantLib13HestonProcessEEptEv, ptr noundef nonnull @.str.9, i64 noundef 784)
  %.pre.i = load ptr, ptr %call2, align 8, !tbaa !114
  br label %_ZNK5boost10shared_ptrIN8QuantLib13HestonProcessEEptEv.exit

_ZNK5boost10shared_ptrIN8QuantLib13HestonProcessEEptEv.exit: ; preds = %entry, %cond.false.i
  %2 = phi ptr [ %1, %entry ], [ %.pre.i, %cond.false.i ]
  %rho_.i = getelementptr inbounds nuw i8, ptr %2, i64 208
  %3 = load double, ptr %rho_.i, align 8, !tbaa !121
  %call6 = tail call noundef nonnull align 8 dereferenceable(16) ptr @_ZNK8QuantLib6HandleINS_13HestonProcessEEptEv(ptr noundef nonnull align 8 dereferenceable(16) %process_)
  %4 = load ptr, ptr %call6, align 8, !tbaa !114
  %cmp.not.i9 = icmp eq ptr %4, null
  br i1 %cmp.not.i9, label %cond.false.i10, label %_ZNK5boost10shared_ptrIN8QuantLib13HestonProcessEEptEv.exit12, !prof !53

cond.false.i10:                                   ; preds = %_ZNK5boost10shared_ptrIN8QuantLib13HestonProcessEEptEv.exit
  tail call void @_ZN5boost16assertion_failedEPKcS1_S1_l(ptr noundef nonnull @.str.8, ptr noundef nonnull @__PRETTY_FUNCTION__._ZNK5boost10shared_ptrIN8QuantLib13HestonProcessEEptEv, ptr noundef nonnull @.str.9, i64 noundef 784)
  %.pre.i11 = load ptr, ptr %call6, align 8, !tbaa !114
  br label %_ZNK5boost10shared_ptrIN8QuantLib13HestonProcessEEptEv.exit12

_ZNK5boost10shared_ptrIN8QuantLib13HestonProcessEEptEv.exit12: ; preds = %_ZNK5boost10shared_ptrIN8QuantLib13HestonProcessEEptEv.exit, %cond.false.i10
  %5 = phi ptr [ %4, %_ZNK5boost10shared_ptrIN8QuantLib13HestonProcessEEptEv.exit ], [ %.pre.i11, %cond.false.i10 ]
  %sigma_.i = getelementptr inbounds nuw i8, ptr %5, i64 200
  %6 = load double, ptr %sigma_.i, align 8, !tbaa !137
  %call9 = tail call noundef double @_ZNK8QuantLib15FdmHestonSolver7gammaAtEdd(ptr noundef nonnull align 8 dereferenceable(208) %this, double noundef %s, double noundef %v)
  %solver_ = getelementptr inbounds nuw i8, ptr %this, i64 192
  %7 = load ptr, ptr %solver_, align 8, !tbaa !105
  %cmp.not.i13 = icmp eq ptr %7, null
  br i1 %cmp.not.i13, label %cond.false.i14, label %_ZNK5boost10shared_ptrIN8QuantLib13Fdm2DimSolverEEptEv.exit, !prof !53

cond.false.i14:                                   ; preds = %_ZNK5boost10shared_ptrIN8QuantLib13HestonProcessEEptEv.exit12
  tail call void @_ZN5boost16assertion_failedEPKcS1_S1_l(ptr noundef nonnull @.str.8, ptr noundef nonnull @__PRETTY_FUNCTION__._ZNK5boost10shared_ptrIN8QuantLib13Fdm2DimSolverEEptEv, ptr noundef nonnull @.str.9, i64 noundef 784)
  %.pre.i15 = load ptr, ptr %solver_, align 8, !tbaa !105
  br label %_ZNK5boost10shared_ptrIN8QuantLib13Fdm2DimSolverEEptEv.exit

_ZNK5boost10shared_ptrIN8QuantLib13Fdm2DimSolverEEptEv.exit: ; preds = %_ZNK5boost10shared_ptrIN8QuantLib13HestonProcessEEptEv.exit12, %cond.false.i14
  %8 = phi ptr [ %7, %_ZNK5boost10shared_ptrIN8QuantLib13HestonProcessEEptEv.exit12 ], [ %.pre.i15, %cond.false.i14 ]
  %call11 = tail call noundef double @_ZNK8QuantLib13Fdm2DimSolver12derivativeYYEdd(ptr noundef nonnull align 8 dereferenceable(296) %8, double noundef %call, double noundef %v)
  %9 = load ptr, ptr %solver_, align 8, !tbaa !105
  %cmp.not.i16 = icmp eq ptr %9, null
  br i1 %cmp.not.i16, label %cond.false.i17, label %_ZNK5boost10shared_ptrIN8QuantLib13Fdm2DimSolverEEptEv.exit19, !prof !53

cond.false.i17:                                   ; preds = %_ZNK5boost10shared_ptrIN8QuantLib13Fdm2DimSolverEEptEv.exit
  tail call void @_ZN5boost16assertion_failedEPKcS1_S1_l(ptr noundef nonnull @.str.8, ptr noundef nonnull @__PRETTY_FUNCTION__._ZNK5boost10shared_ptrIN8QuantLib13Fdm2DimSolverEEptEv, ptr noundef nonnull @.str.9, i64 noundef 784)
  %.pre.i18 = load ptr, ptr %solver_, align 8, !tbaa !105
  br label %_ZNK5boost10shared_ptrIN8QuantLib13Fdm2DimSolverEEptEv.exit19

_ZNK5boost10shared_ptrIN8QuantLib13Fdm2DimSolverEEptEv.exit19: ; preds = %_ZNK5boost10shared_ptrIN8QuantLib13Fdm2DimSolverEEptEv.exit, %cond.false.i17
  %10 = phi ptr [ %9, %_ZNK5boost10shared_ptrIN8QuantLib13Fdm2DimSolverEEptEv.exit ], [ %.pre.i18, %cond.false.i17 ]
  %mul = fmul double %3, %6
  %div = fdiv double %mul, %s
  %mul12 = fmul double %div, %call11
  %11 = tail call double @llvm.fmuladd.f64(double %mul12, double %div, double %call9)
  %call16 = tail call noundef double @_ZNK8QuantLib13Fdm2DimSolver12derivativeXYEdd(ptr noundef nonnull align 8 dereferenceable(296) %10, double noundef %call, double noundef %v)
  %mul17 = fmul double %call16, 2.000000e+00
  %mul18 = fmul double %div, %mul17
  %div19 = fdiv double %mul18, %s
  %add = fadd double %11, %div19
  ret double %add
}